target datalayout = "e-m:e-p270:32:32-p271:32:32-p272:64:64-i64:64-i128:128-f80:128-n8:16:32:64-S128"
target triple = "x86_64-pc-linux-gnu"

%struct.Curl_cftype = type { ptr, i32, i32, ptr, ptr, ptr, ptr, ptr, ptr, ptr, ptr, ptr, ptr, ptr, ptr, ptr }
%struct.Curl_cfilter = type { ptr, ptr, ptr, ptr, i32, i8 }
%struct.cf_call_data = type { ptr }
%struct.cf_h2_proxy_ctx = type { ptr, %struct.cf_call_data, %struct.bufq, %struct.bufq, %struct.tunnel_stream, i32, i32, i8 }
%struct.bufq = type { ptr, ptr, ptr, ptr, i64, i64, i64, i32 }
%struct.tunnel_stream = type { ptr, %struct.bufq, %struct.bufq, ptr, i32, i32, i32, i8 }
%struct.Curl_easy = type { i32, i64, i64, ptr, %struct.Curl_llist_node, %struct.Curl_llist_node, i32, i32, %struct.Curl_message, %struct.easy_pollset, %struct.Names, ptr, ptr, ptr, %struct.SingleRequest, %struct.UserDefined, ptr, ptr, %struct.Progress, %struct.UrlState, ptr, %struct.PureInfo, %struct.curl_tlssessioninfo }
%struct.Curl_llist_node = type { ptr, ptr, ptr, ptr }
%struct.Curl_message = type { %struct.Curl_llist_node, %struct.CURLMsg }
%struct.CURLMsg = type { i32, ptr, %union.anon }
%union.anon = type { ptr }
%struct.easy_pollset = type { [5 x i32], i32, [5 x i8] }
%struct.Names = type { ptr, i32 }
%struct.SingleRequest = type <{ i64, i64, i64, i64, %struct.curltime, i32, i32, i32, i32, i64, i32, i32, i32, i32, ptr, ptr, %struct.bufq, i64, i64, ptr, ptr, %union.anon.0, ptr, i8, i32, [3 x i8] }>
%struct.curltime = type { i64, i32 }
%union.anon.0 = type { ptr }
%struct.UserDefined = type <{ ptr, ptr, ptr, ptr, ptr, ptr, i16, [6 x i8], i64, i64, i64, ptr, ptr, i64, i16, i16, [4 x i8], ptr, ptr, ptr, ptr, ptr, ptr, ptr, ptr, ptr, ptr, ptr, ptr, ptr, ptr, ptr, ptr, ptr, ptr, ptr, ptr, ptr, ptr, ptr, i32, i32, i32, i32, i32, [4 x i8], i64, i64, i64, i64, i64, i64, i64, i64, ptr, ptr, %struct.curl_mimepart, ptr, ptr, i64, i8, i8, i8, [5 x i8], %struct.ssl_config_data, %struct.ssl_config_data, ptr, i16, i8, i8, [4 x i8], %struct.ssl_general_config, i32, i32, i32, [4 x i8], ptr, ptr, i8, [7 x i8], i64, i8, i8, i8, i8, i32, ptr, ptr, ptr, i8, i8, [2 x i8], i32, [63 x ptr], [8 x ptr], i32, i32, i32, [4 x i8], ptr, ptr, ptr, ptr, ptr, i8, [3 x i8], i32, i32, i32, i64, %struct.Curl_data_priority, ptr, ptr, i64, ptr, i64, ptr, ptr, ptr, i8, [3 x i8], i32, i8, i8, i64, [6 x i8] }>
%struct.curl_mimepart = type { ptr, ptr, i32, i32, ptr, ptr, ptr, ptr, ptr, ptr, ptr, ptr, ptr, ptr, ptr, i64, %struct.mime_state, ptr, %struct.mime_encoder_state, i64 }
%struct.mime_state = type { i32, ptr, i64 }
%struct.mime_encoder_state = type { i64, i64, i64, [256 x i8] }
%struct.ssl_config_data = type { %struct.ssl_primary_config, i64, ptr, ptr, ptr, ptr, ptr, ptr, ptr, i16 }
%struct.ssl_primary_config = type { ptr, ptr, ptr, ptr, ptr, ptr, ptr, ptr, ptr, ptr, ptr, ptr, i8, i32, i8, i8 }
%struct.ssl_general_config = type { i64, i32 }
%struct.Curl_data_priority = type { ptr, ptr, i32, i8 }
%struct.Progress = type { i64, %struct.pgrs_dir, %struct.pgrs_dir, i64, i64, i32, i32, i64, i64, i64, i64, i64, i64, i64, i64, i64, %struct.curltime, %struct.curltime, %struct.curltime, %struct.curltime, [6 x i64], [6 x %struct.curltime], i32, i8 }
%struct.pgrs_dir = type { i64, i64, i64, %struct.pgrs_measure }
%struct.pgrs_measure = type { %struct.curltime, i64 }
%struct.UrlState = type { %struct.curltime, i64, i64, %struct.dynbuf, ptr, i64, ptr, i32, i32, i32, ptr, i64, i32, i64, i32, ptr, %struct.digestdata, %struct.digestdata, %struct.auth, %struct.auth, %struct.Curl_async, ptr, %struct.curltime, %struct.Curl_tree, %struct.Curl_llist, [15 x %struct.time_node], ptr, ptr, i64, i64, %struct.Curl_data_priority, ptr, ptr, ptr, %struct.urlpieces, ptr, ptr, ptr, ptr, ptr, i64, %struct.dynbuf, %struct.Curl_llist, [2 x %struct.curl_header], ptr, i32, ptr, ptr, %struct.store_netrc, %struct.dynamically_allocated_data, i8, i8, i8, i8, i32 }
%struct.digestdata = type { ptr, ptr, ptr, ptr, ptr, ptr, i32, i8, i8 }
%struct.auth = type { i64, i64, i64, i8 }
%struct.Curl_async = type { ptr, ptr, ptr, ptr, i32, i32, i8 }
%struct.Curl_tree = type { ptr, ptr, ptr, ptr, %struct.curltime, ptr }
%struct.time_node = type { %struct.Curl_llist_node, %struct.curltime, i32 }
%struct.urlpieces = type { ptr, ptr, ptr, ptr, ptr, ptr, ptr, ptr }
%struct.dynbuf = type { ptr, i64, i64, i64 }
%struct.Curl_llist = type { ptr, ptr, ptr, i64 }
%struct.curl_header = type { ptr, ptr, i64, i64, i32, ptr }
%struct.store_netrc = type { %struct.dynbuf, ptr, i8 }
%struct.dynamically_allocated_data = type { ptr, ptr, ptr, ptr, ptr, ptr, ptr, ptr, ptr, ptr, ptr, ptr, ptr }
%struct.PureInfo = type { i32, i32, i32, i64, i64, i64, i64, i64, ptr, ptr, i64, i32, %struct.ip_quadruple, i32, ptr, i32, %struct.curl_certinfo, i32, i8 }
%struct.ip_quadruple = type { [46 x i8], [46 x i8], i32, i32 }
%struct.curl_certinfo = type { i32, ptr }
%struct.curl_tlssessioninfo = type { i32, ptr }
%struct.curl_trc_feat = type { ptr, i32 }

@.str.39 = private unnamed_addr constant [33 x i8] c"[%d] tunnel_send_callback -> %zd\00", align 1

; Function Attrs: nounwind uwtable
define internal i64 @tunnel_send_callback(ptr noundef %0, i32 noundef %1, ptr noundef %2, i64 noundef %3, ptr noundef %4, ptr noundef %5, ptr noundef %6) #0 {
  %8 = alloca i64, align 8
  %9 = alloca ptr, align 8
  %10 = alloca i32, align 4
  %11 = alloca ptr, align 8
  %12 = alloca i64, align 8
  %13 = alloca ptr, align 8
  %14 = alloca ptr, align 8
  %15 = alloca ptr, align 8
  %16 = alloca ptr, align 8
  %17 = alloca ptr, align 8
  %18 = alloca ptr, align 8
  %19 = alloca ptr, align 8
  %20 = alloca i32, align 4
  %21 = alloca i64, align 8
  %22 = alloca i32, align 4
  store ptr %0, ptr %9, align 8, !tbaa !131
  store i32 %1, ptr %10, align 4, !tbaa !22
  store ptr %2, ptr %11, align 8, !tbaa !117
  store i64 %3, ptr %12, align 8, !tbaa !41
  store ptr %4, ptr %13, align 8, !tbaa !118
  store ptr %5, ptr %14, align 8, !tbaa !116
  store ptr %6, ptr %15, align 8, !tbaa !116
  call void @llvm.lifetime.start.p0(i64 8, ptr %16) #6
  %23 = load ptr, ptr %15, align 8, !tbaa !116
  store ptr %23, ptr %16, align 8, !tbaa !4
  call void @llvm.lifetime.start.p0(i64 8, ptr %17) #6
  %24 = load ptr, ptr %16, align 8, !tbaa !4
  %25 = getelementptr inbounds nuw %struct.Curl_cfilter, ptr %24, i32 0, i32 2
  %26 = load ptr, ptr %25, align 8, !tbaa !11
  store ptr %26, ptr %17, align 8, !tbaa !16
  call void @llvm.lifetime.start.p0(i64 8, ptr %18) #6
  %27 = load ptr, ptr %16, align 8, !tbaa !4
  %28 = icmp ne ptr %27, null
  br i1 %28, label %29, label %36

29:                                               ; preds = %7
  %30 = load ptr, ptr %16, align 8, !tbaa !4
  %31 = getelementptr inbounds nuw %struct.Curl_cfilter, ptr %30, i32 0, i32 2
  %32 = load ptr, ptr %31, align 8, !tbaa !11
  %33 = getelementptr inbounds nuw %struct.cf_h2_proxy_ctx, ptr %32, i32 0, i32 1
  %34 = getelementptr inbounds nuw %struct.cf_call_data, ptr %33, i32 0, i32 0
  %35 = load ptr, ptr %34, align 8, !tbaa !29
  br label %37

36:                                               ; preds = %7
  br label %37

37:                                               ; preds = %36, %29
  %38 = phi ptr [ %35, %29 ], [ null, %36 ]
  store ptr %38, ptr %18, align 8, !tbaa !9
  call void @llvm.lifetime.start.p0(i64 8, ptr %19) #6
  call void @llvm.lifetime.start.p0(i64 4, ptr %20) #6
  call void @llvm.lifetime.start.p0(i64 8, ptr %21) #6
  %39 = load i32, ptr %10, align 4, !tbaa !22
  %40 = icmp ne i32 %39, 0
  br i1 %40, label %42, label %41

41:                                               ; preds = %37
  store i64 -501, ptr %8, align 8
  store i32 1, ptr %22, align 4
  br label %127

42:                                               ; preds = %37
  %43 = load ptr, ptr %9, align 8, !tbaa !131
  %44 = load i32, ptr %10, align 4, !tbaa !22
  %45 = call ptr @nghttp2_session_get_stream_user_data(ptr noundef %43, i32 noundef %44)
  store ptr %45, ptr %19, align 8, !tbaa !23
  %46 = load ptr, ptr %19, align 8, !tbaa !23
  %47 = icmp ne ptr %46, null
  br i1 %47, label %49, label %48

48:                                               ; preds = %42
  store i64 -902, ptr %8, align 8
  store i32 1, ptr %22, align 4
  br label %127

49:                                               ; preds = %42
  br label %50

50:                                               ; preds = %49
  br label %51

51:                                               ; preds = %50
  br label %52

52:                                               ; preds = %51
  %53 = load ptr, ptr %19, align 8, !tbaa !23
  %54 = getelementptr inbounds nuw %struct.tunnel_stream, ptr %53, i32 0, i32 2
  %55 = load ptr, ptr %11, align 8, !tbaa !117
  %56 = load i64, ptr %12, align 8, !tbaa !41
  %57 = call i64 @Curl_bufq_read(ptr noundef %54, ptr noundef %55, i64 noundef %56, ptr noundef %20)
  store i64 %57, ptr %21, align 8, !tbaa !41
  %58 = load i64, ptr %21, align 8, !tbaa !41
  %59 = icmp slt i64 %58, 0
  br i1 %59, label %60, label %65

60:                                               ; preds = %52
  %61 = load i32, ptr %20, align 4, !tbaa !22
  %62 = icmp ne i32 %61, 81
  br i1 %62, label %63, label %64

63:                                               ; preds = %60
  store i64 -902, ptr %8, align 8
  store i32 1, ptr %22, align 4
  br label %127

64:                                               ; preds = %60
  store i64 -508, ptr %8, align 8
  store i32 1, ptr %22, align 4
  br label %127

65:                                               ; preds = %52
  %66 = load ptr, ptr %19, align 8, !tbaa !23
  %67 = getelementptr inbounds nuw %struct.tunnel_stream, ptr %66, i32 0, i32 7
  %68 = load i8, ptr %67, align 4
  %69 = lshr i8 %68, 1
  %70 = and i8 %69, 1
  %71 = zext i8 %70 to i32
  %72 = icmp ne i32 %71, 0
  br i1 %72, label %73, label %79

73:                                               ; preds = %65
  %74 = load ptr, ptr %19, align 8, !tbaa !23
  %75 = getelementptr inbounds nuw %struct.tunnel_stream, ptr %74, i32 0, i32 2
  %76 = call zeroext i1 @Curl_bufq_is_empty(ptr noundef %75)
  br i1 %76, label %77, label %79

77:                                               ; preds = %73
  %78 = load ptr, ptr %13, align 8, !tbaa !118
  store i32 1, ptr %78, align 4, !tbaa !22
  br label %79

79:                                               ; preds = %77, %73, %65
  br label %80

80:                                               ; preds = %79
  %81 = load ptr, ptr %18, align 8, !tbaa !9
  %82 = icmp ne ptr %81, null
  br i1 %82, label %83, label %123

83:                                               ; preds = %80
  %84 = load ptr, ptr %18, align 8, !tbaa !9
  %85 = getelementptr inbounds nuw %struct.Curl_easy, ptr %84, i32 0, i32 15
  %86 = getelementptr inbounds nuw %struct.UserDefined, ptr %85, i32 0, i32 124
  %87 = load i64, ptr %86, align 2
  %88 = lshr i64 %87, 27
  %89 = and i64 %88, 1
  %90 = trunc i64 %89 to i32
  %91 = icmp ne i32 %90, 0
  br i1 %91, label %92, label %123

92:                                               ; preds = %83
  %93 = load ptr, ptr %18, align 8, !tbaa !9
  %94 = getelementptr inbounds nuw %struct.Curl_easy, ptr %93, i32 0, i32 19
  %95 = getelementptr inbounds nuw %struct.UrlState, ptr %94, i32 0, i32 47
  %96 = load ptr, ptr %95, align 8, !tbaa !49
  %97 = icmp ne ptr %96, null
  br i1 %97, label %98, label %106

98:                                               ; preds = %92
  %99 = load ptr, ptr %18, align 8, !tbaa !9
  %100 = getelementptr inbounds nuw %struct.Curl_easy, ptr %99, i32 0, i32 19
  %101 = getelementptr inbounds nuw %struct.UrlState, ptr %100, i32 0, i32 47
  %102 = load ptr, ptr %101, align 8, !tbaa !49
  %103 = getelementptr inbounds nuw %struct.curl_trc_feat, ptr %102, i32 0, i32 1
  %104 = load i32, ptr %103, align 8, !tbaa !111
  %105 = icmp sge i32 %104, 1
  br i1 %105, label %106, label %123

106:                                              ; preds = %98, %92
  %107 = load ptr, ptr %16, align 8, !tbaa !4
  %108 = icmp ne ptr %107, null
  br i1 %108, label %109, label %123

109:                                              ; preds = %106
  %110 = load ptr, ptr %16, align 8, !tbaa !4
  %111 = getelementptr inbounds nuw %struct.Curl_cfilter, ptr %110, i32 0, i32 0
  %112 = load ptr, ptr %111, align 8, !tbaa !43
  %113 = getelementptr inbounds nuw %struct.Curl_cftype, ptr %112, i32 0, i32 2
  %114 = load i32, ptr %113, align 4, !tbaa !113
  %115 = icmp sge i32 %114, 1
  br i1 %115, label %116, label %123

116:                                              ; preds = %109
  %117 = load ptr, ptr %18, align 8, !tbaa !9
  %118 = load ptr, ptr %16, align 8, !tbaa !4
  %119 = load ptr, ptr %19, align 8, !tbaa !23
  %120 = getelementptr inbounds nuw %struct.tunnel_stream, ptr %119, i32 0, i32 4
  %121 = load i32, ptr %120, align 8, !tbaa !130
  %122 = load i64, ptr %21, align 8, !tbaa !41
  call void (ptr, ptr, ptr, ...) @Curl_trc_cf_infof(ptr noundef %117, ptr noundef %118, ptr noundef @.str.39, i32 noundef %121, i64 noundef %122)
  br label %123

123:                                              ; preds = %116, %109, %106, %98, %83, %80
  br label %124

124:                                              ; preds = %123
  br label %125

125:                                              ; preds = %124
  %126 = load i64, ptr %21, align 8, !tbaa !41
  store i64 %126, ptr %8, align 8
  store i32 1, ptr %22, align 4
  br label %127

127:                                              ; preds = %125, %64, %63, %48, %41
  call void @llvm.lifetime.end.p0(i64 8, ptr %21) #6
  call void @llvm.lifetime.end.p0(i64 4, ptr %20) #6
  call void @llvm.lifetime.end.p0(i64 8, ptr %19) #6
  call void @llvm.lifetime.end.p0(i64 8, ptr %18) #6
  call void @llvm.lifetime.end.p0(i64 8, ptr %17) #6
  call void @llvm.lifetime.end.p0(i64 8, ptr %16) #6
  %128 = load i64, ptr %8, align 8
  ret i64 %128
}