; Function Attrs: nounwind uwtable
define internal range(i64 -902, -9223372036854775808) i64 @tunnel_send_callback(ptr noundef %0, i32 noundef %1, ptr noundef %2, i64 noundef %3, ptr noundef writeonly captures(none) %4, ptr readnone captures(none) %5, ptr noundef %6) #0 {
  %8 = alloca i32, align 4
  %9 = icmp ne ptr %6, null
  br i1 %9, label %10, label %15

10:                                               ; preds = %7
  %11 = getelementptr inbounds nuw i8, ptr %6, i64 16
  %12 = load ptr, ptr %11, align 8, !tbaa !4
  %13 = getelementptr inbounds nuw i8, ptr %12, i64 8
  %14 = load ptr, ptr %13, align 8, !tbaa !34
  br label %15

15:                                               ; preds = %7, %10
  %16 = phi ptr [ %14, %10 ], [ null, %7 ]
  call void @llvm.lifetime.start.p0(i64 4, ptr nonnull %8) #7
  %.not = icmp eq i32 %1, 0
  br i1 %.not, label %53, label %17

17:                                               ; preds = %15
  %18 = tail call ptr @nghttp2_session_get_stream_user_data(ptr noundef %0, i32 noundef %1) #7
  %.not32 = icmp eq ptr %18, null
  br i1 %.not32, label %53, label %19

19:                                               ; preds = %17
  %20 = getelementptr inbounds nuw i8, ptr %18, i64 72
  %21 = call i64 @Curl_bufq_read(ptr noundef nonnull %20, ptr noundef %2, i64 noundef %3, ptr noundef nonnull %8) #7
  %22 = icmp slt i64 %21, 0
  br i1 %22, label %23, label %25

23:                                               ; preds = %19
  %24 = load i32, ptr %8, align 4, !tbaa !40
  %.not37 = icmp eq i32 %24, 81
  %. = select i1 %.not37, i64 -508, i64 -902
  br label %53

25:                                               ; preds = %19
  %26 = getelementptr inbounds nuw i8, ptr %18, i64 156
  %27 = load i8, ptr %26, align 4
  %28 = and i8 %27, 2
  %.not33 = icmp eq i8 %28, 0
  br i1 %.not33, label %32, label %29

29:                                               ; preds = %25
  %30 = call zeroext i1 @Curl_bufq_is_empty(ptr noundef nonnull %20) #7
  br i1 %30, label %31, label %32

31:                                               ; preds = %29
  store i32 1, ptr %4, align 4, !tbaa !40
  br label %32

32:                                               ; preds = %25, %29, %31
  %.not34 = icmp eq ptr %16, null
  br i1 %.not34, label %53, label %33

33:                                               ; preds = %32
  %34 = getelementptr inbounds nuw i8, ptr %16, i64 2562
  %35 = load i64, ptr %34, align 2
  %36 = and i64 %35, 134217728
  %.not35 = icmp eq i64 %36, 0
  br i1 %.not35, label %53, label %37

37:                                               ; preds = %33
  %38 = getelementptr inbounds nuw i8, ptr %16, i64 4712
  %39 = load ptr, ptr %38, align 8, !tbaa !108
  %.not36 = icmp eq ptr %39, null
  br i1 %.not36, label %44, label %40

40:                                               ; preds = %37
  %41 = getelementptr inbounds nuw i8, ptr %39, i64 8
  %42 = load i32, ptr %41, align 8, !tbaa !109
  %43 = icmp sgt i32 %42, 0
  %or.cond = and i1 %9, %43
  br i1 %or.cond, label %45, label %53

44:                                               ; preds = %37
  br i1 %9, label %45, label %53

45:                                               ; preds = %40, %44
  %46 = load ptr, ptr %6, align 8, !tbaa !111
  %47 = getelementptr inbounds nuw i8, ptr %46, i64 12
  %48 = load i32, ptr %47, align 4, !tbaa !112
  %49 = icmp sgt i32 %48, 0
  br i1 %49, label %50, label %53

50:                                               ; preds = %45
  %51 = getelementptr inbounds nuw i8, ptr %18, i64 144
  %52 = load i32, ptr %51, align 8, !tbaa !38
  call void (ptr, ptr, ptr, ...) @Curl_trc_cf_infof(ptr noundef nonnull %16, ptr noundef nonnull %6, ptr noundef nonnull @.str.39, i32 noundef %52, i64 noundef %21) #7
  br label %53

53:                                               ; preds = %32, %33, %40, %44, %45, %50, %23, %17, %15
  %.0 = phi i64 [ -501, %15 ], [ -902, %17 ], [ %., %23 ], [ %21, %50 ], [ %21, %45 ], [ %21, %44 ], [ %21, %40 ], [ %21, %33 ], [ %21, %32 ]
  call void @llvm.lifetime.end.p0(i64 4, ptr nonnull %8) #7
  ret i64 %.0
}